; Function Attrs: mustprogress nofree norecurse nosync nounwind willreturn memory(argmem: readwrite) uwtable
define internal nonnull ptr @Unroll2Bytes(ptr nocapture readnone %0, ptr nocapture noundef writeonly %1, ptr noundef readonly %2, i32 %3) #3 {
  %5 = load i8, ptr %2, align 1
  %6 = zext i8 %5 to i16
  %7 = shl nuw i16 %6, 8
  %8 = or disjoint i16 %7, %6
  store i16 %8, ptr %1, align 2
  %9 = getelementptr inbounds i8, ptr %2, i64 1
  %10 = load i8, ptr %9, align 1
  %11 = zext i8 %10 to i16
  %12 = shl nuw i16 %11, 8
  %13 = or disjoint i16 %12, %11
  %14 = getelementptr inbounds i8, ptr %1, i64 2
  store i16 %13, ptr %14, align 2
  %15 = getelementptr inbounds i8, ptr %2, i64 2
  ret ptr %15
}